target datalayout = "e-m:e-p270:32:32-p271:32:32-p272:64:64-i64:64-i128:128-f80:128-n8:16:32:64-S128"
target triple = "x86_64-pc-linux-gnu"

%class.CodeHeap = type { %class.VirtualSpace, %class.VirtualSpace, i64, i64, i64, i32, i64, ptr, ptr, i64, i32, i64, ptr, i32, i32, i32, i32, i32, i32 }
%class.VirtualSpace = type { ptr, ptr, ptr, ptr, i8, i8, ptr, ptr, ptr, ptr, ptr, ptr, i64, i64, i64 }

; Function Attrs: mustprogress nounwind uwtable
define hidden void @_ZN8CodeHeapC2EPKc12CodeBlobType(ptr noundef nonnull align 8 dereferenceable(336) %0, ptr noundef %1, i32 noundef %2) unnamed_addr #1 align 2 {
  %4 = alloca ptr, align 8
  %5 = alloca ptr, align 8
  %6 = alloca i32, align 4
  store ptr %0, ptr %4, align 8
  store ptr %1, ptr %5, align 8
  store i32 %2, ptr %6, align 4
  %7 = load ptr, ptr %4, align 8
  %8 = getelementptr inbounds %class.CodeHeap, ptr %7, i32 0, i32 0
  call void @_ZN12VirtualSpaceC1Ev(ptr noundef nonnull align 8 dereferenceable(112) %8)
  %9 = getelementptr inbounds %class.CodeHeap, ptr %7, i32 0, i32 1
  call void @_ZN12VirtualSpaceC1Ev(ptr noundef nonnull align 8 dereferenceable(112) %9)
  %10 = getelementptr inbounds %class.CodeHeap, ptr %7, i32 0, i32 13
  %11 = load i32, ptr %6, align 4
  store i32 %11, ptr %10, align 8
  %12 = load ptr, ptr %5, align 8
  %13 = getelementptr inbounds %class.CodeHeap, ptr %7, i32 0, i32 12
  store ptr %12, ptr %13, align 8
  %14 = getelementptr inbounds %class.CodeHeap, ptr %7, i32 0, i32 2
  store i64 0, ptr %14, align 8
  %15 = getelementptr inbounds %class.CodeHeap, ptr %7, i32 0, i32 3
  store i64 0, ptr %15, align 8
  %16 = getelementptr inbounds %class.CodeHeap, ptr %7, i32 0, i32 4
  store i64 0, ptr %16, align 8
  %17 = getelementptr inbounds %class.CodeHeap, ptr %7, i32 0, i32 5
  store i32 0, ptr %17, align 8
  %18 = getelementptr inbounds %class.CodeHeap, ptr %7, i32 0, i32 6
  store i64 0, ptr %18, align 8
  %19 = getelementptr inbounds %class.CodeHeap, ptr %7, i32 0, i32 7
  store ptr null, ptr %19, align 8
  %20 = getelementptr inbounds %class.CodeHeap, ptr %7, i32 0, i32 8
  store ptr null, ptr %20, align 8
  %21 = getelementptr inbounds %class.CodeHeap, ptr %7, i32 0, i32 9
  store i64 0, ptr %21, align 8
  %22 = getelementptr inbounds %class.CodeHeap, ptr %7, i32 0, i32 10
  store i32 0, ptr %22, align 8
  %23 = getelementptr inbounds %class.CodeHeap, ptr %7, i32 0, i32 11
  store i64 0, ptr %23, align 8
  %24 = getelementptr inbounds %class.CodeHeap, ptr %7, i32 0, i32 14
  store i32 0, ptr %24, align 4
  %25 = getelementptr inbounds %class.CodeHeap, ptr %7, i32 0, i32 15
  store i32 0, ptr %25, align 8
  %26 = getelementptr inbounds %class.CodeHeap, ptr %7, i32 0, i32 16
  store i32 0, ptr %26, align 4
  %27 = getelementptr inbounds %class.CodeHeap, ptr %7, i32 0, i32 17
  store i32 0, ptr %27, align 8
  %28 = getelementptr inbounds %class.CodeHeap, ptr %7, i32 0, i32 18
  store i32 0, ptr %28, align 4
  ret void
}