; Function Attrs: mustprogress nounwind uwtable
define hidden void @_ZN8CodeHeapC2EPKc12CodeBlobType(ptr noundef nonnull align 8 dereferenceable(336) %0, ptr noundef %1, i32 noundef %2) unnamed_addr #0 align 2 {
  tail call void @_ZN12VirtualSpaceC1Ev(ptr noundef nonnull align 8 dereferenceable(112) %0) #16
  %4 = getelementptr inbounds i8, ptr %0, i64 112
  tail call void @_ZN12VirtualSpaceC1Ev(ptr noundef nonnull align 8 dereferenceable(112) %4) #16
  %5 = getelementptr inbounds i8, ptr %0, i64 312
  store i32 %2, ptr %5, align 8
  %6 = getelementptr inbounds i8, ptr %0, i64 304
  store ptr %1, ptr %6, align 8
  %7 = getelementptr inbounds i8, ptr %0, i64 224
  %8 = getelementptr inbounds i8, ptr %0, i64 256
  %9 = getelementptr inbounds i8, ptr %0, i64 296
  store i64 0, ptr %9, align 8
  %10 = getelementptr inbounds i8, ptr %0, i64 316
  tail call void @llvm.memset.p0.i64(ptr noundef nonnull align 8 dereferenceable(28) %7, i8 0, i64 28, i1 false)
  tail call void @llvm.memset.p0.i64(ptr noundef nonnull align 8 dereferenceable(36) %8, i8 0, i64 36, i1 false)
  tail call void @llvm.memset.p0.i64(ptr noundef nonnull align 4 dereferenceable(20) %10, i8 0, i64 20, i1 false)
  ret void
}